target datalayout = "e-m:e-p270:32:32-p271:32:32-p272:64:64-i64:64-i128:128-f80:128-n8:16:32:64-S128"
target triple = "x86_64-pc-linux-gnu"

%class.CompilationFailureInfo = type <{ %class.NativeCallStack, ptr, double, i32, [4 x i8] }>
%class.NativeCallStack = type { [4 x ptr] }

@.str = private unnamed_addr constant [9 x i8] c"  Time: \00", align 1
@.str.4 = private unnamed_addr constant [17 x i8] c"  Compile id: %d\00", align 1
@.str.5 = private unnamed_addr constant [15 x i8] c"  Reason: '%s'\00", align 1
@.str.6 = private unnamed_addr constant [14 x i8] c"  Callstack: \00", align 1

; Function Attrs: mustprogress nounwind uwtable
define hidden void @_ZNK22CompilationFailureInfo8print_onEP12outputStream(ptr noundef nonnull align 8 dereferenceable(52) %0, ptr noundef %1) #1 align 2 {
  %3 = alloca ptr, align 8
  %4 = alloca ptr, align 8
  store ptr %0, ptr %3, align 8
  store ptr %1, ptr %4, align 8
  %5 = load ptr, ptr %3, align 8
  %6 = load ptr, ptr %4, align 8
  call void (ptr, ptr, ...) @_ZN12outputStream5printEPKcz(ptr noundef nonnull align 8 dereferenceable(56) %6, ptr noundef @.str)
  %7 = load ptr, ptr %4, align 8
  %8 = getelementptr inbounds %class.CompilationFailureInfo, ptr %5, i32 0, i32 2
  %9 = load double, ptr %8, align 8
  call void @_ZN2os18print_elapsed_timeEP12outputStreamd(ptr noundef %7, double noundef %9)
  %10 = load ptr, ptr %4, align 8
  %11 = getelementptr inbounds %class.CompilationFailureInfo, ptr %5, i32 0, i32 3
  %12 = load i32, ptr %11, align 8
  call void (ptr, ptr, ...) @_ZN12outputStream8print_crEPKcz(ptr noundef nonnull align 8 dereferenceable(56) %10, ptr noundef @.str.4, i32 noundef %12)
  %13 = load ptr, ptr %4, align 8
  %14 = getelementptr inbounds %class.CompilationFailureInfo, ptr %5, i32 0, i32 1
  %15 = load ptr, ptr %14, align 8
  call void (ptr, ptr, ...) @_ZN12outputStream8print_crEPKcz(ptr noundef nonnull align 8 dereferenceable(56) %13, ptr noundef @.str.5, ptr noundef %15)
  %16 = load ptr, ptr %4, align 8
  call void (ptr, ptr, ...) @_ZN12outputStream8print_crEPKcz(ptr noundef nonnull align 8 dereferenceable(56) %16, ptr noundef @.str.6)
  %17 = getelementptr inbounds %class.CompilationFailureInfo, ptr %5, i32 0, i32 0
  %18 = load ptr, ptr %4, align 8
  call void @_ZNK15NativeCallStack8print_onEP12outputStream(ptr noundef nonnull align 8 dereferenceable(32) %17, ptr noundef %18)
  %19 = load ptr, ptr %4, align 8
  call void @_ZN12outputStream2crEv(ptr noundef nonnull align 8 dereferenceable(56) %19)
  ret void
}