; Function Attrs: mustprogress nounwind uwtable
define hidden void @_ZNK22CompilationFailureInfo8print_onEP12outputStream(ptr noundef nonnull align 8 dereferenceable(52) %0, ptr noundef nonnull %1) local_unnamed_addr #0 align 2 {
  tail call void (ptr, ptr, ...) @_ZN12outputStream5printEPKcz(ptr noundef nonnull align 8 dereferenceable(56) %1, ptr noundef nonnull @.str) #3
  %3 = getelementptr inbounds i8, ptr %0, i64 40
  %4 = load double, ptr %3, align 8
  tail call void @_ZN2os18print_elapsed_timeEP12outputStreamd(ptr noundef nonnull %1, double noundef %4) #3
  %5 = getelementptr inbounds i8, ptr %0, i64 48
  %6 = load i32, ptr %5, align 8
  tail call void (ptr, ptr, ...) @_ZN12outputStream8print_crEPKcz(ptr noundef nonnull align 8 dereferenceable(56) %1, ptr noundef nonnull @.str.4, i32 noundef %6) #3
  %7 = getelementptr inbounds i8, ptr %0, i64 32
  %8 = load ptr, ptr %7, align 8
  tail call void (ptr, ptr, ...) @_ZN12outputStream8print_crEPKcz(ptr noundef nonnull align 8 dereferenceable(56) %1, ptr noundef nonnull @.str.5, ptr noundef %8) #3
  tail call void (ptr, ptr, ...) @_ZN12outputStream8print_crEPKcz(ptr noundef nonnull align 8 dereferenceable(56) %1, ptr noundef nonnull @.str.6) #3
  tail call void @_ZNK15NativeCallStack8print_onEP12outputStream(ptr noundef nonnull align 8 dereferenceable(32) %0, ptr noundef nonnull %1) #3
  tail call void @_ZN12outputStream2crEv(ptr noundef nonnull align 8 dereferenceable(56) %1) #3
  ret void
}